Certificate:
    Data:
        Version: 3 (0x2)
        Serial Number: 1 (0x1)
        Signature Algorithm: sha256WithRSAEncryption
        Issuer: CN=devcert
        Validity
            Not Before: Aug  8 23:35:01 2023 GMT
            Not After : Nov 10 23:35:01 2025 GMT
        Subject: CN=localhost
        Subject Public Key Info:
            Public Key Algorithm: rsaEncryption
                Public-Key: (2048 bit)
                Modulus:
                    00:aa:db:e7:d4:e6:d5:69:19:a0:55:8a:4b:b0:ad:
                    49:37:4f:e2:cc:a1:4d:26:fc:20:a0:4f:d9:24:54:
                    f6:2a:b1:20:3b:e8:c5:04:bc:76:b7:cc:45:72:4a:
                    21:c7:70:f9:a2:39:61:92:85:14:4c:91:6c:29:10:
                    9c:02:a8:9b:cd:3d:eb:32:5e:ff:95:06:0e:6c:5d:
                    2f:59:cc:85:b0:10:a8:2e:ac:64:ad:bf:1c:29:b8:
                    f3:4e:48:35:7c:85:c1:02:d0:3a:44:da:3d:6f:48:
                    65:5e:02:a7:8a:9c:13:ac:59:0b:b9:a5:48:f9:09:
                    61:85:ec:c2:7d:c4:6c:41:13:3c:45:5b:b5:b4:5f:
                    19:e0:7b:e8:d1:e8:d7:86:0d:3d:89:86:2a:4a:e7:
                    f2:0a:b7:4f:97:82:63:f0:20:85:d7:08:9a:20:18:
                    fd:46:f0:ab:91:90:2d:a0:d2:0b:fa:26:cf:0d:e9:
                    84:00:57:80:14:cd:98:17:d8:48:d5:b8:7b:ce:39:
                    93:d3:08:85:d7:bd:07:51:01:2c:3d:64:53:64:de:
                    17:1b:6b:75:04:03:87:c2:98:c8:ea:db:9a:26:5e:
                    ec:4f:e2:10:26:d6:22:ff:27:b3:d2:5c:48:ee:73:
                    cc:6f:a8:c8:b4:f2:e7:c7:d2:98:1e:37:c9:90:74:
                    c2:b3
                Exponent: 65537 (0x10001)
        X509v3 extensions:
            X509v3 Basic Constraints: critical
                CA:FALSE
            X509v3 Subject Key Identifier: 
                E3:90:50:C5:76:96:E6:DB:01:A7:CA:F9:84:56:A1:C0:6E:C3:78:D9
            X509v3 Authority Key Identifier: 
                keyid:9D:31:79:50:AF:6C:45:A8:DA:19:07:5C:66:F3:78:25:87:A4:1D:C3
                DirName:/CN=devcert
                serial:21:6C:AD:7E:56:8E:66:C7:FF:7F:A5:72:69:D8:11:4F:CB:D3:55:2C
            X509v3 Key Usage: critical
                Digital Signature, Key Encipherment
            X509v3 Extended Key Usage: 
                TLS Web Server Authentication
            X509v3 Subject Alternative Name: 
                DNS:localhost, DNS:*.localhost
    Signature Algorithm: sha256WithRSAEncryption
    Signature Value:
        16:c2:c5:62:7f:a5:b7:03:69:19:ce:d2:8e:b7:02:eb:30:4e:
        47:91:9a:99:7e:7d:d8:b9:a2:aa:2d:cb:79:05:01:7f:dd:cc:
        1f:9b:f8:fe:c2:6f:43:34:cc:ac:ef:0c:03:41:18:4a:5d:00:
        d5:57:bd:9f:7d:59:3b:6e:4e:8a:b8:dc:b3:92:10:a8:0b:04:
        de:3a:2f:eb:b3:b8:75:41:fe:d0:34:6b:41:72:b4:6a:11:d3:
        e6:61:40:aa:43:fa:0b:90:b3:3a:e0:7f:32:d2:e2:aa:5e:4e:
        6b:c6:5f:6a:86:d4:d1:16:39:73:42:eb:60:50:7c:3c:33:9a:
        a0:f9:21:6c:cf:3b:44:eb:95:fe:95:d0:d0:70:7a:53:e4:dc:
        0d:b4:cf:4b:6e:a6:9a:8c:77:9b:2f:af:05:cf:53:55:cd:1b:
        9c:da:36:35:d6:00:bf:a7:25:8b:08:d0:e5:b1:8b:55:6d:e1:
        d2:ba:a1:37:61:08:da:90:e6:20:56:77:69:61:79:a3:cc:08:
        da:84:fd:c1:bb:87:64:3d:3d:ba:a8:7e:f5:cb:74:83:03:82:
        96:f1:7d:dc:7f:4d:a8:24:3e:c5:b9:49:1c:b8:3d:fb:11:ae:
        21:50:09:ba:25:3a:52:62:13:ce:5a:7b:ce:23:31:31:f0:12:
        17:29:8b:0a
-----BEGIN CERTIFICATE-----
MIIDaTCCAlGgAwIBAgIBATANBgkqhkiG9w0BAQsFADASMRAwDgYDVQQDDAdkZXZj
ZXJ0MB4XDTIzMDgwODIzMzUwMVoXDTI1MTExMDIzMzUwMVowFDESMBAGA1UEAwwJ
bG9jYWxob3N0MIIBIjANBgkqhkiG9w0BAQEFAAOCAQ8AMIIBCgKCAQEAqtvn1ObV
aRmgVYpLsK1JN0/izKFNJvwgoE/ZJFT2KrEgO+jFBLx2t8xFckohx3D5ojlhkoUU
TJFsKRCcAqibzT3rMl7/lQYObF0vWcyFsBCoLqxkrb8cKbjzTkg1fIXBAtA6RNo9
b0hlXgKnipwTrFkLuaVI+QlhhezCfcRsQRM8RVu1tF8Z4Hvo0ejXhg09iYYqSufy
CrdPl4Jj8CCF1wiaIBj9RvCrkZAtoNIL+ibPDemEAFeAFM2YF9hI1bh7zjmT0wiF
170HUQEsPWRTZN4XG2t1BAOHwpjI6tuaJl7sT+IQJtYi/yez0lxI7nPMb6jItPLn
x9KYHjfJkHTCswIDAQABo4HHMIHEMAwGA1UdEwEB/wQCMAAwHQYDVR0OBBYEFOOQ
UMV2lubbAafK+YRWocBuw3jZME0GA1UdIwRGMESAFJ0xeVCvbEWo2hkHXGbzeCWH
pB3DoRakFDASMRAwDgYDVQQDDAdkZXZjZXJ0ghQhbK1+Vo5mx/9/pXJp2BFPy9NV
LDAOBgNVHQ8BAf8EBAMCBaAwEwYDVR0lBAwwCgYIKwYBBQUHAwEwIQYDVR0RBBow
GIIJbG9jYWxob3N0ggsqLmxvY2FsaG9zdDANBgkqhkiG9w0BAQsFAAOCAQEAFsLF
Yn+ltwNpGc7SjrcC6zBOR5GamX592Lmiqi3LeQUBf93MH5v4/sJvQzTMrO8MA0EY
Sl0A1Ve9n31ZO25Oirjcs5IQqAsE3jov67O4dUH+0DRrQXK0ahHT5mFAqkP6C5Cz
OuB/MtLiql5Oa8ZfaobU0RY5c0LrYFB8PDOaoPkhbM87ROuV/pXQ0HB6U+TcDbTP
S26mmox3my+vBc9TVc0bnNo2NdYAv6cliwjQ5bGLVW3h0rqhN2EI2pDmIFZ3aWF5
o8wI2oT9wbuHZD09uqh+9ct0gwOClvF93H9NqCQ+xblJHLg9+xGuIVAJuiU6UmIT
zlp7ziMxMfASFymLCg==
-----END CERTIFICATE-----
